; ModuleID = 'source-C-CXX/29/2776.c'
source_filename = "source-C-CXX/29/2776.c"
target datalayout = "e-m:e-p270:32:32-p271:32:32-p272:64:64-i64:64-f80:128-n8:16:32:64-S128"
target triple = "x86_64-pc-linux-gnu"

@.str = private unnamed_addr constant [3 x i8] c"%d\00", align 1
@.str.1 = private unnamed_addr constant [4 x i8] c"%d\0A\00", align 1

; Function Attrs: nofree nounwind sspstrong uwtable
define dso_local i32 @main() local_unnamed_addr #0 {
  %1 = alloca i32, align 4
  %2 = bitcast i32* %1 to i8*
  call void @llvm.lifetime.start.p0i8(i64 4, i8* nonnull %2) #3
  %3 = call i32 (i8*, ...) @__isoc99_scanf(i8* getelementptr inbounds ([3 x i8], [3 x i8]* @.str, i64 0, i64 0), i32* nonnull %1)
  %4 = load i32, i32* %1, align 4, !tbaa !5
  %5 = icmp sgt i32 %4, 0
  br i1 %5, label %6, label %34

6:                                                ; preds = %0, %29
  %7 = phi i32 [ %31, %29 ], [ 0, %0 ]
  %8 = phi i32 [ %32, %29 ], [ %4, %0 ]
  br label %9

9:                                                ; preds = %6, %15
  %10 = phi i32 [ %8, %6 ], [ %16, %15 ]
  %11 = urem i32 %10, 7
  %12 = icmp eq i32 %11, 0
  br i1 %12, label %13, label %18

13:                                               ; preds = %9
  %14 = add nsw i32 %10, -1
  store i32 %14, i32* %1, align 4, !tbaa !5
  br label %15

15:                                               ; preds = %13, %22, %27
  %16 = phi i32 [ %28, %27 ], [ %23, %22 ], [ %14, %13 ]
  %17 = icmp sgt i32 %16, 0
  br i1 %17, label %9, label %34, !llvm.loop !9

18:                                               ; preds = %9
  %19 = urem i32 %10, 10
  %20 = udiv i32 %10, 10
  %21 = icmp eq i32 %19, 7
  br i1 %21, label %22, label %24

22:                                               ; preds = %18
  %23 = add nsw i32 %10, -1
  store i32 %23, i32* %1, align 4, !tbaa !5
  br label %15

24:                                               ; preds = %18
  %25 = urem i32 %20, 10
  %26 = icmp eq i32 %25, 7
  br i1 %26, label %27, label %29

27:                                               ; preds = %24
  %28 = add nsw i32 %10, -1
  store i32 %28, i32* %1, align 4, !tbaa !5
  br label %15

29:                                               ; preds = %24
  %30 = mul nsw i32 %10, %10
  %31 = add nuw nsw i32 %30, %7
  %32 = add nsw i32 %10, -1
  store i32 %32, i32* %1, align 4, !tbaa !5
  %33 = icmp sgt i32 %10, 1
  br i1 %33, label %6, label %34, !llvm.loop !9

34:                                               ; preds = %29, %15, %0
  %35 = phi i32 [ 0, %0 ], [ %7, %15 ], [ %31, %29 ]
  %36 = call i32 (i8*, ...) @printf(i8* nonnull dereferenceable(1) getelementptr inbounds ([4 x i8], [4 x i8]* @.str.1, i64 0, i64 0), i32 %35)
  call void @llvm.lifetime.end.p0i8(i64 4, i8* nonnull %2) #3
  ret i32 0
}

; Function Attrs: argmemonly mustprogress nofree nosync nounwind willreturn
declare void @llvm.lifetime.start.p0i8(i64 immarg, i8* nocapture) #1

; Function Attrs: nofree nounwind
declare noundef i32 @__isoc99_scanf(i8* nocapture noundef readonly, ...) local_unnamed_addr #2

; Function Attrs: nofree nounwind
declare noundef i32 @printf(i8* nocapture noundef readonly, ...) local_unnamed_addr #2

; Function Attrs: argmemonly mustprogress nofree nosync nounwind willreturn
declare void @llvm.lifetime.end.p0i8(i64 immarg, i8* nocapture) #1


!llvm.module.flags = !{!0, !1, !2, !3}
!llvm.ident = !{!4}

!0 = !{i32 1, !"wchar_size", i32 4}
!1 = !{i32 7, !"PIC Level", i32 2}
!2 = !{i32 7, !"PIE Level", i32 2}
!3 = !{i32 7, !"uwtable", i32 1}
!4 = !{!"clang version 13.0.0"}
!5 = !{!6, !6, i64 0}
!6 = !{!"int", !7, i64 0}
!7 = !{!"omnipotent char", !8, i64 0}
!8 = !{!"Simple C/C++ TBAA"}
!9 = distinct !{!9, !10}
!10 = !{!"llvm.loop.mustprogress"}
